target datalayout = "e-m:e-p270:32:32-p271:32:32-p272:64:64-i64:64-i128:128-f80:128-n8:16:32:64-S128"
target triple = "x86_64-pc-linux-gnu"

%"class.zxing::Binarizer" = type { %"class.zxing::Counted.base", %"class.zxing::Ref", i8, i8, i32, i32, i32, i32, %"class.zxing::Ref.0", %"class.zxing::Ref.0", %"class.zxing::Ref.0" }
%"class.zxing::Counted.base" = type <{ ptr, i32 }>
%"class.zxing::Ref" = type { ptr }
%"class.zxing::Ref.0" = type { ptr }
%"class.zxing::Counted" = type <{ ptr, i32, [4 x i8] }>
%"class.zxing::LuminanceSource" = type { %"class.zxing::Counted.base", i32, i32, [4 x i8] }

@_ZTVN5zxing7CountedE = linkonce_odr hidden unnamed_addr constant { [4 x ptr] } { [4 x ptr] [ptr null, ptr @_ZTIN5zxing7CountedE, ptr @_ZN5zxing7CountedD2Ev, ptr @_ZN5zxing7CountedD0Ev] }, comdat, align 8

; Function Attrs: mustprogress nounwind uwtable
define linkonce_odr hidden noundef ptr @_ZN5zxing7Counted6retainEv(ptr noundef nonnull align 8 dereferenceable(12) %0) #1 comdat align 2 {
  %2 = alloca ptr, align 8
  store ptr %0, ptr %2, align 8
  %3 = load ptr, ptr %2, align 8
  %4 = getelementptr inbounds %"class.zxing::Counted", ptr %3, i32 0, i32 1
  %5 = load i32, ptr %4, align 8
  %6 = add i32 %5, 1
  store i32 %6, ptr %4, align 8
  ret ptr %3
}

; Function Attrs: mustprogress nounwind uwtable
define linkonce_odr hidden void @_ZN5zxing7Counted7releaseEv(ptr noundef nonnull align 8 dereferenceable(12) %0) #1 comdat align 2 {
  %2 = alloca ptr, align 8
  store ptr %0, ptr %2, align 8
  %3 = load ptr, ptr %2, align 8
  %4 = getelementptr inbounds %"class.zxing::Counted", ptr %3, i32 0, i32 1
  %5 = load i32, ptr %4, align 8
  %6 = add i32 %5, -1
  store i32 %6, ptr %4, align 8
  %7 = getelementptr inbounds %"class.zxing::Counted", ptr %3, i32 0, i32 1
  %8 = load i32, ptr %7, align 8
  %9 = icmp eq i32 %8, 0
  br i1 %9, label %10, label %18

10:                                               ; preds = %1
  %11 = getelementptr inbounds %"class.zxing::Counted", ptr %3, i32 0, i32 1
  store i32 -559026175, ptr %11, align 8
  %12 = icmp eq ptr %3, null
  br i1 %12, label %17, label %13

13:                                               ; preds = %10
  %14 = load ptr, ptr %3, align 8
  %15 = getelementptr inbounds ptr, ptr %14, i64 1
  %16 = load ptr, ptr %15, align 8
  call void %16(ptr noundef nonnull align 8 dereferenceable(12) %3) #9
  br label %17

17:                                               ; preds = %13, %10
  br label %18

18:                                               ; preds = %17, %1
  ret void
}

; Function Attrs: mustprogress nounwind uwtable
define linkonce_odr hidden void @_ZN5zxing3RefINS_9BitMatrixEE5resetEPS1_(ptr noundef nonnull align 8 dereferenceable(8) %0, ptr noundef %1) #1 comdat align 2 {
  %3 = alloca ptr, align 8
  %4 = alloca ptr, align 8
  store ptr %0, ptr %3, align 8
  store ptr %1, ptr %4, align 8
  %5 = load ptr, ptr %3, align 8
  %6 = load ptr, ptr %4, align 8
  %7 = icmp ne ptr %6, null
  br i1 %7, label %8, label %11

8:                                                ; preds = %2
  %9 = load ptr, ptr %4, align 8
  %10 = call noundef ptr @_ZN5zxing7Counted6retainEv(ptr noundef nonnull align 8 dereferenceable(12) %9)
  br label %11

11:                                               ; preds = %8, %2
  %12 = getelementptr inbounds %"class.zxing::Ref.0", ptr %5, i32 0, i32 0
  %13 = load ptr, ptr %12, align 8
  %14 = icmp ne ptr %13, null
  br i1 %14, label %15, label %18

15:                                               ; preds = %11
  %16 = getelementptr inbounds %"class.zxing::Ref.0", ptr %5, i32 0, i32 0
  %17 = load ptr, ptr %16, align 8
  call void @_ZN5zxing7Counted7releaseEv(ptr noundef nonnull align 8 dereferenceable(12) %17)
  br label %18

18:                                               ; preds = %15, %11
  %19 = load ptr, ptr %4, align 8
  %20 = getelementptr inbounds %"class.zxing::Ref.0", ptr %5, i32 0, i32 0
  store ptr %19, ptr %20, align 8
  ret void
}

; Function Attrs: mustprogress nounwind uwtable
define linkonce_odr hidden void @_ZN5zxing3RefINS_15LuminanceSourceEE5resetEPS1_(ptr noundef nonnull align 8 dereferenceable(8) %0, ptr noundef %1) #1 comdat align 2 {
  %3 = alloca ptr, align 8
  %4 = alloca ptr, align 8
  store ptr %0, ptr %3, align 8
  store ptr %1, ptr %4, align 8
  %5 = load ptr, ptr %3, align 8
  %6 = load ptr, ptr %4, align 8
  %7 = icmp ne ptr %6, null
  br i1 %7, label %8, label %11

8:                                                ; preds = %2
  %9 = load ptr, ptr %4, align 8
  %10 = call noundef ptr @_ZN5zxing7Counted6retainEv(ptr noundef nonnull align 8 dereferenceable(12) %9)
  br label %11

11:                                               ; preds = %8, %2
  %12 = getelementptr inbounds %"class.zxing::Ref", ptr %5, i32 0, i32 0
  %13 = load ptr, ptr %12, align 8
  %14 = icmp ne ptr %13, null
  br i1 %14, label %15, label %18

15:                                               ; preds = %11
  %16 = getelementptr inbounds %"class.zxing::Ref", ptr %5, i32 0, i32 0
  %17 = load ptr, ptr %16, align 8
  call void @_ZN5zxing7Counted7releaseEv(ptr noundef nonnull align 8 dereferenceable(12) %17)
  br label %18

18:                                               ; preds = %15, %11
  %19 = load ptr, ptr %4, align 8
  %20 = getelementptr inbounds %"class.zxing::Ref", ptr %5, i32 0, i32 0
  store ptr %19, ptr %20, align 8
  ret void
}

; Function Attrs: mustprogress nounwind uwtable
define linkonce_odr hidden void @_ZN5zxing7CountedD2Ev(ptr noundef nonnull align 8 dereferenceable(12) %0) unnamed_addr #1 comdat align 2 {
  %2 = alloca ptr, align 8
  store ptr %0, ptr %2, align 8
  ret void
}

; Function Attrs: mustprogress nounwind uwtable
define linkonce_odr hidden void @_ZN5zxing3RefINS_15LuminanceSourceEED2Ev(ptr noundef nonnull align 8 dereferenceable(8) %0) unnamed_addr #1 comdat align 2 {
  %2 = alloca ptr, align 8
  store ptr %0, ptr %2, align 8
  %3 = load ptr, ptr %2, align 8
  %4 = getelementptr inbounds %"class.zxing::Ref", ptr %3, i32 0, i32 0
  %5 = load ptr, ptr %4, align 8
  %6 = icmp ne ptr %5, null
  br i1 %6, label %7, label %10

7:                                                ; preds = %1
  %8 = getelementptr inbounds %"class.zxing::Ref", ptr %3, i32 0, i32 0
  %9 = load ptr, ptr %8, align 8
  call void @_ZN5zxing7Counted7releaseEv(ptr noundef nonnull align 8 dereferenceable(12) %9)
  br label %10

10:                                               ; preds = %7, %1
  ret void
}

; Function Attrs: mustprogress nounwind uwtable
define linkonce_odr hidden void @_ZN5zxing3RefINS_9BitMatrixEED2Ev(ptr noundef nonnull align 8 dereferenceable(8) %0) unnamed_addr #1 comdat align 2 {
  %2 = alloca ptr, align 8
  store ptr %0, ptr %2, align 8
  %3 = load ptr, ptr %2, align 8
  %4 = getelementptr inbounds %"class.zxing::Ref.0", ptr %3, i32 0, i32 0
  %5 = load ptr, ptr %4, align 8
  %6 = icmp ne ptr %5, null
  br i1 %6, label %7, label %10

7:                                                ; preds = %1
  %8 = getelementptr inbounds %"class.zxing::Ref.0", ptr %3, i32 0, i32 0
  %9 = load ptr, ptr %8, align 8
  call void @_ZN5zxing7Counted7releaseEv(ptr noundef nonnull align 8 dereferenceable(12) %9)
  br label %10

10:                                               ; preds = %7, %1
  ret void
}

; Function Attrs: mustprogress nounwind uwtable
define linkonce_odr hidden noundef nonnull align 8 dereferenceable(8) ptr @_ZN5zxing3RefINS_9BitMatrixEEaSEPS1_(ptr noundef nonnull align 8 dereferenceable(8) %0, ptr noundef %1) #1 comdat align 2 {
  %3 = alloca ptr, align 8
  %4 = alloca ptr, align 8
  store ptr %0, ptr %3, align 8
  store ptr %1, ptr %4, align 8
  %5 = load ptr, ptr %3, align 8
  %6 = load ptr, ptr %4, align 8
  call void @_ZN5zxing3RefINS_9BitMatrixEE5resetEPS1_(ptr noundef nonnull align 8 dereferenceable(8) %5, ptr noundef %6)
  ret ptr %5
}

; Function Attrs: mustprogress nounwind uwtable
define linkonce_odr hidden noundef i32 @_ZNK5zxing15LuminanceSource9getHeightEv(ptr noundef nonnull align 8 dereferenceable(20) %0) #1 comdat align 2 {
  %2 = alloca ptr, align 8
  store ptr %0, ptr %2, align 8
  %3 = load ptr, ptr %2, align 8
  %4 = getelementptr inbounds %"class.zxing::LuminanceSource", ptr %3, i32 0, i32 2
  %5 = load i32, ptr %4, align 8
  ret i32 %5
}

; Function Attrs: mustprogress nounwind uwtable
define linkonce_odr hidden noundef i32 @_ZNK5zxing15LuminanceSource8getWidthEv(ptr noundef nonnull align 8 dereferenceable(20) %0) #1 comdat align 2 {
  %2 = alloca ptr, align 8
  store ptr %0, ptr %2, align 8
  %3 = load ptr, ptr %2, align 8
  %4 = getelementptr inbounds %"class.zxing::LuminanceSource", ptr %3, i32 0, i32 1
  %5 = load i32, ptr %4, align 4
  ret i32 %5
}

; Function Attrs: mustprogress nounwind uwtable
define linkonce_odr hidden noundef ptr @_ZNK5zxing3RefINS_15LuminanceSourceEEptEv(ptr noundef nonnull align 8 dereferenceable(8) %0) #1 comdat align 2 {
  %2 = alloca ptr, align 8
  store ptr %0, ptr %2, align 8
  %3 = load ptr, ptr %2, align 8
  %4 = getelementptr inbounds %"class.zxing::Ref", ptr %3, i32 0, i32 0
  %5 = load ptr, ptr %4, align 8
  ret ptr %5
}

; Function Attrs: mustprogress uwtable
define linkonce_odr hidden void @_ZN5zxing3RefINS_9BitMatrixEEC2EPS1_(ptr noundef nonnull align 8 dereferenceable(8) %0, ptr noundef %1) unnamed_addr #0 comdat align 2 {
  %3 = alloca ptr, align 8
  %4 = alloca ptr, align 8
  store ptr %0, ptr %3, align 8
  store ptr %1, ptr %4, align 8
  %5 = load ptr, ptr %3, align 8
  %6 = getelementptr inbounds %"class.zxing::Ref.0", ptr %5, i32 0, i32 0
  store ptr null, ptr %6, align 8
  %7 = load ptr, ptr %4, align 8
  call void @_ZN5zxing3RefINS_9BitMatrixEE5resetEPS1_(ptr noundef nonnull align 8 dereferenceable(8) %5, ptr noundef %7)
  ret void
}

; Function Attrs: mustprogress uwtable
define linkonce_odr hidden void @_ZN5zxing3RefINS_15LuminanceSourceEEC2ERKS2_(ptr noundef nonnull align 8 dereferenceable(8) %0, ptr noundef nonnull align 8 dereferenceable(8) %1) unnamed_addr #0 comdat align 2 {
  %3 = alloca ptr, align 8
  %4 = alloca ptr, align 8
  store ptr %0, ptr %3, align 8
  store ptr %1, ptr %4, align 8
  %5 = load ptr, ptr %3, align 8
  %6 = getelementptr inbounds %"class.zxing::Ref", ptr %5, i32 0, i32 0
  store ptr null, ptr %6, align 8
  %7 = load ptr, ptr %4, align 8
  %8 = getelementptr inbounds %"class.zxing::Ref", ptr %7, i32 0, i32 0
  %9 = load ptr, ptr %8, align 8
  call void @_ZN5zxing3RefINS_15LuminanceSourceEE5resetEPS1_(ptr noundef nonnull align 8 dereferenceable(8) %5, ptr noundef %9)
  ret void
}

; Function Attrs: mustprogress nounwind uwtable
define linkonce_odr hidden void @_ZN5zxing7CountedC2Ev(ptr noundef nonnull align 8 dereferenceable(12) %0) unnamed_addr #1 comdat align 2 {
  %2 = alloca ptr, align 8
  store ptr %0, ptr %2, align 8
  %3 = load ptr, ptr %2, align 8
  store ptr getelementptr inbounds inrange(-16, 16) ({ [4 x ptr] }, ptr @_ZTVN5zxing7CountedE, i32 0, i32 0, i32 2), ptr %3, align 8
  %4 = getelementptr inbounds %"class.zxing::Counted", ptr %3, i32 0, i32 1
  store i32 0, ptr %4, align 8
  ret void
}

; Function Attrs: mustprogress uwtable
define hidden void @_ZN5zxing9BinarizerC2ENS_3RefINS_15LuminanceSourceEEE(ptr noundef nonnull align 8 dereferenceable(72) %0, ptr noundef %1) unnamed_addr #0 align 2 personality ptr @__gxx_personality_v0 {
  %3 = alloca ptr, align 8
  %4 = alloca ptr, align 8
  %5 = alloca ptr, align 8
  %6 = alloca i32, align 4
  store ptr %0, ptr %3, align 8
  store ptr %1, ptr %4, align 8
  %7 = load ptr, ptr %3, align 8
  call void @_ZN5zxing7CountedC2Ev(ptr noundef nonnull align 8 dereferenceable(12) %7)
  store ptr getelementptr inbounds inrange(-16, 48) ({ [8 x ptr] }, ptr @_ZTVN5zxing9BinarizerE, i32 0, i32 0, i32 2), ptr %7, align 8
  %8 = getelementptr inbounds %"class.zxing::Binarizer", ptr %7, i32 0, i32 1
  invoke void @_ZN5zxing3RefINS_15LuminanceSourceEEC2ERKS2_(ptr noundef nonnull align 8 dereferenceable(8) %8, ptr noundef nonnull align 8 dereferenceable(8) %1)
          to label %9 unwind label %43

9:                                                ; preds = %2
  %10 = getelementptr inbounds %"class.zxing::Binarizer", ptr %7, i32 0, i32 8
  invoke void @_ZN5zxing3RefINS_9BitMatrixEEC2EPS1_(ptr noundef nonnull align 8 dereferenceable(8) %10, ptr noundef null)
          to label %11 unwind label %47

11:                                               ; preds = %9
  %12 = getelementptr inbounds %"class.zxing::Binarizer", ptr %7, i32 0, i32 9
  invoke void @_ZN5zxing3RefINS_9BitMatrixEEC2EPS1_(ptr noundef nonnull align 8 dereferenceable(8) %12, ptr noundef null)
          to label %13 unwind label %51

13:                                               ; preds = %11
  %14 = getelementptr inbounds %"class.zxing::Binarizer", ptr %7, i32 0, i32 10
  invoke void @_ZN5zxing3RefINS_9BitMatrixEEC2EPS1_(ptr noundef nonnull align 8 dereferenceable(8) %14, ptr noundef null)
          to label %15 unwind label %55

15:                                               ; preds = %13
  %16 = invoke noundef ptr @_ZNK5zxing3RefINS_15LuminanceSourceEEptEv(ptr noundef nonnull align 8 dereferenceable(8) %1)
          to label %17 unwind label %59

17:                                               ; preds = %15
  %18 = invoke noundef i32 @_ZNK5zxing15LuminanceSource8getWidthEv(ptr noundef nonnull align 8 dereferenceable(20) %16)
          to label %19 unwind label %59

19:                                               ; preds = %17
  %20 = getelementptr inbounds %"class.zxing::Binarizer", ptr %7, i32 0, i32 4
  store i32 %18, ptr %20, align 4
  %21 = invoke noundef ptr @_ZNK5zxing3RefINS_15LuminanceSourceEEptEv(ptr noundef nonnull align 8 dereferenceable(8) %1)
          to label %22 unwind label %59

22:                                               ; preds = %19
  %23 = invoke noundef i32 @_ZNK5zxing15LuminanceSource9getHeightEv(ptr noundef nonnull align 8 dereferenceable(20) %21)
          to label %24 unwind label %59

24:                                               ; preds = %22
  %25 = getelementptr inbounds %"class.zxing::Binarizer", ptr %7, i32 0, i32 5
  store i32 %23, ptr %25, align 8
  %26 = getelementptr inbounds %"class.zxing::Binarizer", ptr %7, i32 0, i32 4
  %27 = load i32, ptr %26, align 4
  %28 = getelementptr inbounds %"class.zxing::Binarizer", ptr %7, i32 0, i32 6
  store i32 %27, ptr %28, align 4
  %29 = getelementptr inbounds %"class.zxing::Binarizer", ptr %7, i32 0, i32 5
  %30 = load i32, ptr %29, align 8
  %31 = getelementptr inbounds %"class.zxing::Binarizer", ptr %7, i32 0, i32 7
  store i32 %30, ptr %31, align 8
  %32 = getelementptr inbounds %"class.zxing::Binarizer", ptr %7, i32 0, i32 8
  %33 = invoke noundef nonnull align 8 dereferenceable(8) ptr @_ZN5zxing3RefINS_9BitMatrixEEaSEPS1_(ptr noundef nonnull align 8 dereferenceable(8) %32, ptr noundef null)
          to label %34 unwind label %59

34:                                               ; preds = %24
  %35 = getelementptr inbounds %"class.zxing::Binarizer", ptr %7, i32 0, i32 9
  %36 = invoke noundef nonnull align 8 dereferenceable(8) ptr @_ZN5zxing3RefINS_9BitMatrixEEaSEPS1_(ptr noundef nonnull align 8 dereferenceable(8) %35, ptr noundef null)
          to label %37 unwind label %59

37:                                               ; preds = %34
  %38 = getelementptr inbounds %"class.zxing::Binarizer", ptr %7, i32 0, i32 10
  %39 = invoke noundef nonnull align 8 dereferenceable(8) ptr @_ZN5zxing3RefINS_9BitMatrixEEaSEPS1_(ptr noundef nonnull align 8 dereferenceable(8) %38, ptr noundef null)
          to label %40 unwind label %59

40:                                               ; preds = %37
  %41 = getelementptr inbounds %"class.zxing::Binarizer", ptr %7, i32 0, i32 2
  store i8 0, ptr %41, align 8
  %42 = getelementptr inbounds %"class.zxing::Binarizer", ptr %7, i32 0, i32 3
  store i8 0, ptr %42, align 1
  ret void

43:                                               ; preds = %2
  %44 = landingpad { ptr, i32 }
          cleanup
  %45 = extractvalue { ptr, i32 } %44, 0
  store ptr %45, ptr %5, align 8
  %46 = extractvalue { ptr, i32 } %44, 1
  store i32 %46, ptr %6, align 4
  br label %66

47:                                               ; preds = %9
  %48 = landingpad { ptr, i32 }
          cleanup
  %49 = extractvalue { ptr, i32 } %48, 0
  store ptr %49, ptr %5, align 8
  %50 = extractvalue { ptr, i32 } %48, 1
  store i32 %50, ptr %6, align 4
  br label %65

51:                                               ; preds = %11
  %52 = landingpad { ptr, i32 }
          cleanup
  %53 = extractvalue { ptr, i32 } %52, 0
  store ptr %53, ptr %5, align 8
  %54 = extractvalue { ptr, i32 } %52, 1
  store i32 %54, ptr %6, align 4
  br label %64

55:                                               ; preds = %13
  %56 = landingpad { ptr, i32 }
          cleanup
  %57 = extractvalue { ptr, i32 } %56, 0
  store ptr %57, ptr %5, align 8
  %58 = extractvalue { ptr, i32 } %56, 1
  store i32 %58, ptr %6, align 4
  br label %63

59:                                               ; preds = %37, %34, %24, %22, %19, %17, %15
  %60 = landingpad { ptr, i32 }
          cleanup
  %61 = extractvalue { ptr, i32 } %60, 0
  store ptr %61, ptr %5, align 8
  %62 = extractvalue { ptr, i32 } %60, 1
  store i32 %62, ptr %6, align 4
  call void @_ZN5zxing3RefINS_9BitMatrixEED2Ev(ptr noundef nonnull align 8 dereferenceable(8) %14) #9
  br label %63

63:                                               ; preds = %59, %55
  call void @_ZN5zxing3RefINS_9BitMatrixEED2Ev(ptr noundef nonnull align 8 dereferenceable(8) %12) #9
  br label %64

64:                                               ; preds = %63, %51
  call void @_ZN5zxing3RefINS_9BitMatrixEED2Ev(ptr noundef nonnull align 8 dereferenceable(8) %10) #9
  br label %65

65:                                               ; preds = %64, %47
  call void @_ZN5zxing3RefINS_15LuminanceSourceEED2Ev(ptr noundef nonnull align 8 dereferenceable(8) %8) #9
  br label %66

66:                                               ; preds = %65, %43
  call void @_ZN5zxing7CountedD2Ev(ptr noundef nonnull align 8 dereferenceable(12) %7) #9
  br label %67

67:                                               ; preds = %66
  %68 = load ptr, ptr %5, align 8
  %69 = load i32, ptr %6, align 4
  %70 = insertvalue { ptr, i32 } poison, ptr %68, 0
  %71 = insertvalue { ptr, i32 } %70, i32 %69, 1
  resume { ptr, i32 } %71
}