; Function Attrs: mustprogress uwtable
define hidden void @_ZN5zxing9BinarizerC2ENS_3RefINS_15LuminanceSourceEEE(ptr noundef nonnull align 8 captures(none) dereferenceable(72) initializes((0, 12), (16, 26), (28, 44), (48, 72)) %0, ptr noundef readonly captures(none) %1) unnamed_addr #0 align 2 personality ptr @__gxx_personality_v0 {
  %3 = getelementptr inbounds nuw i8, ptr %0, i64 8
  store i32 0, ptr %3, align 8
  store ptr getelementptr inbounds nuw inrange(-16, 48) (i8, ptr @_ZTVN5zxing9BinarizerE, i64 16), ptr %0, align 8
  %4 = getelementptr inbounds nuw i8, ptr %0, i64 16
  store ptr null, ptr %4, align 8
  %5 = load ptr, ptr %1, align 8
  %.not.i.i = icmp eq ptr %5, null
  br i1 %.not.i.i, label %_ZN5zxing3RefINS_9BitMatrixEEaSEPS1_.exit12, label %6

6:                                                ; preds = %2
  %7 = getelementptr inbounds nuw i8, ptr %5, i64 8
  %8 = load i32, ptr %7, align 8
  %9 = add i32 %8, 1
  store i32 %9, ptr %7, align 8
  %.pr.i = load ptr, ptr %4, align 8
  %.not5.i.i = icmp eq ptr %.pr.i, null
  br i1 %.not5.i.i, label %_ZN5zxing3RefINS_9BitMatrixEEaSEPS1_.exit12, label %10

10:                                               ; preds = %6
  %11 = getelementptr inbounds nuw i8, ptr %.pr.i, i64 8
  %12 = load i32, ptr %11, align 8
  %13 = add i32 %12, -1
  store i32 %13, ptr %11, align 8
  %14 = icmp eq i32 %13, 0
  br i1 %14, label %15, label %_ZN5zxing3RefINS_9BitMatrixEEaSEPS1_.exit12

15:                                               ; preds = %10
  store i32 -559026175, ptr %11, align 8
  %16 = load ptr, ptr %.pr.i, align 8
  %17 = getelementptr inbounds nuw i8, ptr %16, i64 8
  %18 = load ptr, ptr %17, align 8
  tail call void %18(ptr noundef nonnull align 8 dereferenceable(12) %.pr.i) #10
  br label %_ZN5zxing3RefINS_9BitMatrixEEaSEPS1_.exit12

_ZN5zxing3RefINS_9BitMatrixEEaSEPS1_.exit12:      ; preds = %15, %10, %6, %2
  store ptr %5, ptr %4, align 8
  %19 = getelementptr inbounds nuw i8, ptr %0, i64 48
  tail call void @llvm.memset.p0.i64(ptr noundef nonnull align 8 dereferenceable(24) %19, i8 0, i64 24, i1 false)
  %20 = load ptr, ptr %1, align 8
  %21 = getelementptr inbounds nuw i8, ptr %20, i64 12
  %22 = load i32, ptr %21, align 4
  %23 = getelementptr inbounds nuw i8, ptr %0, i64 28
  store i32 %22, ptr %23, align 4
  %24 = load ptr, ptr %1, align 8
  %25 = getelementptr inbounds nuw i8, ptr %24, i64 16
  %26 = load i32, ptr %25, align 8
  %27 = getelementptr inbounds nuw i8, ptr %0, i64 32
  store i32 %26, ptr %27, align 8
  %28 = getelementptr inbounds nuw i8, ptr %0, i64 36
  store i32 %22, ptr %28, align 4
  %29 = getelementptr inbounds nuw i8, ptr %0, i64 40
  store i32 %26, ptr %29, align 8
  %30 = getelementptr inbounds nuw i8, ptr %0, i64 24
  store i8 0, ptr %30, align 8
  %31 = getelementptr inbounds nuw i8, ptr %0, i64 25
  store i8 0, ptr %31, align 1
  tail call void @llvm.memset.p0.i64(ptr noundef nonnull align 8 dereferenceable(24) %19, i8 0, i64 24, i1 false)
  ret void
}